target datalayout = "e-m:e-p270:32:32-p271:32:32-p272:64:64-i64:64-i128:128-f80:128-n8:16:32:64-S128"
target triple = "x86_64-pc-linux-gnu"

%struct.timeout_params = type { i32, i8, i8, ptr, i64, i64, i32 }

@alarm_enabled = internal global i32 0, align 4
@num_active_timeouts = internal global i32 0, align 4
@all_timeouts = internal global [23 x %struct.timeout_params] zeroinitializer, align 16

; Function Attrs: nounwind uwtable
define dso_local void @disable_all_timeouts(i1 noundef zeroext %0) #0 {
  %2 = alloca i8, align 1
  %3 = alloca i32, align 4
  %4 = zext i1 %0 to i8
  store i8 %4, ptr %2, align 1
  call void @llvm.lifetime.start.p0(i64 4, ptr %3) #6
  store volatile i32 0, ptr @alarm_enabled, align 4
  store volatile i32 0, ptr @num_active_timeouts, align 4
  store i32 0, ptr %3, align 4
  br label %5

5:                                                ; preds = %21, %1
  %6 = load i32, ptr %3, align 4
  %7 = icmp slt i32 %6, 23
  br i1 %7, label %8, label %24

8:                                                ; preds = %5
  %9 = load i32, ptr %3, align 4
  %10 = sext i32 %9 to i64
  %11 = getelementptr inbounds [23 x %struct.timeout_params], ptr @all_timeouts, i64 0, i64 %10
  %12 = getelementptr inbounds nuw %struct.timeout_params, ptr %11, i32 0, i32 1
  store volatile i8 0, ptr %12, align 4
  %13 = load i8, ptr %2, align 1, !range !8, !noundef !9
  %14 = trunc i8 %13 to i1
  br i1 %14, label %20, label %15

15:                                               ; preds = %8
  %16 = load i32, ptr %3, align 4
  %17 = sext i32 %16 to i64
  %18 = getelementptr inbounds [23 x %struct.timeout_params], ptr @all_timeouts, i64 0, i64 %17
  %19 = getelementptr inbounds nuw %struct.timeout_params, ptr %18, i32 0, i32 2
  store volatile i8 0, ptr %19, align 1
  br label %20

20:                                               ; preds = %15, %8
  br label %21

21:                                               ; preds = %20
  %22 = load i32, ptr %3, align 4
  %23 = add i32 %22, 1
  store i32 %23, ptr %3, align 4
  br label %5, !llvm.loop !16

24:                                               ; preds = %5
  call void @llvm.lifetime.end.p0(i64 4, ptr %3) #6
  ret void
}